; Function Attrs: mustprogress nofree norecurse nosync nounwind willreturn memory(read, inaccessiblemem: none) uwtable
define internal i32 @"_ZNSt3__116__variant_detail12__visitation6__base12__dispatcherIJLm0EEE10__dispatchB8ne210000IONS1_9__variant15__value_visitorIZNS_6chronoL19__to_year_month_dayB8ne210000ENS8_4yearENS8_5monthENS_7variantIJNS8_3dayENS8_12weekday_lastENS8_4__tz21__constrained_weekdayEEEEE3$_0EEJRNS0_6__baseILNS0_6_TraitE0EJSC_SD_SF_EEEEEEDcT_DpT0_"(ptr noundef nonnull readonly align 8 captures(none) dereferenceable(8) %0, ptr noundef nonnull readonly align 4 captures(none) dereferenceable(16) %1) #4 align 2 {
  %.val = load ptr, ptr %0, align 8, !tbaa !279
  %.val2 = load i8, ptr %1, align 4, !tbaa !17
  %.val.val = load ptr, ptr %.val, align 8, !tbaa !281
  %3 = getelementptr i8, ptr %.val, i64 8
  %.val.val3 = load ptr, ptr %3, align 8, !tbaa !283
  %.val.val.val = load i16, ptr %.val.val, align 2, !tbaa !153
  %.val.val3.val = load i8, ptr %.val.val3, align 1, !tbaa !17
  %.sroa.3.0.insert.ext.i.i.i.i = zext i8 %.val2 to i32
  %.sroa.3.0.insert.shift.i.i.i.i = shl nuw i32 %.sroa.3.0.insert.ext.i.i.i.i, 24
  %.sroa.2.0.insert.ext.i.i.i.i = zext i8 %.val.val3.val to i32
  %.sroa.2.0.insert.shift.i.i.i.i = shl nuw nsw i32 %.sroa.2.0.insert.ext.i.i.i.i, 16
  %.sroa.0.0.insert.ext.i.i.i.i = zext i16 %.val.val.val to i32
  %.sroa.2.0.insert.insert.i.i.i.i = or disjoint i32 %.sroa.3.0.insert.shift.i.i.i.i, %.sroa.0.0.insert.ext.i.i.i.i
  %.sroa.0.0.insert.insert.i.i.i.i = or disjoint i32 %.sroa.2.0.insert.insert.i.i.i.i, %.sroa.2.0.insert.shift.i.i.i.i
  ret i32 %.sroa.0.0.insert.insert.i.i.i.i
}